; ModuleID = '51/870.c'
source_filename = "51/870.c"
target datalayout = "e-m:e-p270:32:32-p271:32:32-p272:64:64-i64:64-f80:128-n8:16:32:64-S128"
target triple = "x86_64-pc-linux-gnu"

@.str = private unnamed_addr constant [3 x i8] c"%d\00", align 1
@.str.1 = private unnamed_addr constant [3 x i8] c"%s\00", align 1
@.str.2 = private unnamed_addr constant [4 x i8] c"NO\0A\00", align 1
@.str.3 = private unnamed_addr constant [4 x i8] c"%d\0A\00", align 1
@.str.4 = private unnamed_addr constant [4 x i8] c"%s\0A\00", align 1

; Function Attrs: noinline nounwind uwtable
define dso_local i32 @main() #0 {
  %1 = alloca i32, align 4
  %2 = alloca i32, align 4
  %3 = alloca i32, align 4
  %4 = alloca i32, align 4
  %5 = alloca i32, align 4
  %6 = alloca [400 x i32], align 16
  %7 = alloca i32, align 4
  %8 = alloca i32, align 4
  %9 = alloca [200 x i32], align 16
  %10 = alloca i32, align 4
  %11 = alloca [550 x i8], align 16
  %12 = alloca [400 x [7 x i8]], align 16
  %13 = alloca [7 x i8], align 1
  store i32 0, i32* %1, align 4
  %14 = bitcast [400 x i32]* %6 to i8*
  call void @llvm.memset.p0i8.i64(i8* align 16 %14, i8 0, i64 1600, i1 false)
  store i32 0, i32* %10, align 4
  %15 = bitcast [550 x i8]* %11 to i8*
  call void @llvm.memset.p0i8.i64(i8* align 16 %15, i8 0, i64 550, i1 false)
  %16 = bitcast [400 x [7 x i8]]* %12 to i8*
  call void @llvm.memset.p0i8.i64(i8* align 16 %16, i8 0, i64 2800, i1 false)
  %17 = bitcast [7 x i8]* %13 to i8*
  call void @llvm.memset.p0i8.i64(i8* align 1 %17, i8 0, i64 7, i1 false)
  %18 = call i32 (i8*, ...) @__isoc99_scanf(i8* getelementptr inbounds ([3 x i8], [3 x i8]* @.str, i64 0, i64 0), i32* %2)
  %19 = getelementptr inbounds [550 x i8], [550 x i8]* %11, i64 0, i64 0
  %20 = call i32 (i8*, ...) @__isoc99_scanf(i8* getelementptr inbounds ([3 x i8], [3 x i8]* @.str.1, i64 0, i64 0), i8* %19)
  %21 = getelementptr inbounds [550 x i8], [550 x i8]* %11, i64 0, i64 0
  %22 = call i64 @strlen(i8* %21) #4
  %23 = trunc i64 %22 to i32
  store i32 %23, i32* %5, align 4
  store i32 0, i32* %4, align 4
  br label %24

24:                                               ; preds = %38, %0
  %25 = load i32, i32* %4, align 4
  %26 = load i32, i32* %2, align 4
  %27 = icmp slt i32 %25, %26
  br i1 %27, label %28, label %41

28:                                               ; preds = %24
  %29 = load i32, i32* %4, align 4
  %30 = sext i32 %29 to i64
  %31 = getelementptr inbounds [550 x i8], [550 x i8]* %11, i64 0, i64 %30
  %32 = load i8, i8* %31, align 1
  %33 = getelementptr inbounds [400 x [7 x i8]], [400 x [7 x i8]]* %12, i64 0, i64 0
  %34 = load i32, i32* %4, align 4
  %35 = sext i32 %34 to i64
  %36 = getelementptr inbounds [7 x i8], [7 x i8]* %33, i64 0, i64 %35
  store i8 %32, i8* %36, align 1
  %37 = getelementptr inbounds [400 x i32], [400 x i32]* %6, i64 0, i64 0
  store i32 1, i32* %37, align 16
  store i32 1, i32* %7, align 4
  br label %38

38:                                               ; preds = %28
  %39 = load i32, i32* %4, align 4
  %40 = add nsw i32 %39, 1
  store i32 %40, i32* %4, align 4
  br label %24

41:                                               ; preds = %24
  store i32 1, i32* %3, align 4
  br label %42

42:                                               ; preds = %121, %41
  %43 = load i32, i32* %3, align 4
  %44 = load i32, i32* %5, align 4
  %45 = load i32, i32* %2, align 4
  %46 = sub nsw i32 %44, %45
  %47 = add nsw i32 %46, 1
  %48 = icmp slt i32 %43, %47
  br i1 %48, label %49, label %124

49:                                               ; preds = %42
  store i32 0, i32* %8, align 4
  store i32 0, i32* %4, align 4
  br label %50

50:                                               ; preds = %64, %49
  %51 = load i32, i32* %4, align 4
  %52 = load i32, i32* %2, align 4
  %53 = icmp slt i32 %51, %52
  br i1 %53, label %54, label %67

54:                                               ; preds = %50
  %55 = load i32, i32* %3, align 4
  %56 = load i32, i32* %4, align 4
  %57 = add nsw i32 %55, %56
  %58 = sext i32 %57 to i64
  %59 = getelementptr inbounds [550 x i8], [550 x i8]* %11, i64 0, i64 %58
  %60 = load i8, i8* %59, align 1
  %61 = load i32, i32* %4, align 4
  %62 = sext i32 %61 to i64
  %63 = getelementptr inbounds [7 x i8], [7 x i8]* %13, i64 0, i64 %62
  store i8 %60, i8* %63, align 1
  br label %64

64:                                               ; preds = %54
  %65 = load i32, i32* %4, align 4
  %66 = add nsw i32 %65, 1
  store i32 %66, i32* %4, align 4
  br label %50

67:                                               ; preds = %50
  store i32 0, i32* %4, align 4
  br label %68

68:                                               ; preds = %87, %67
  %69 = load i32, i32* %4, align 4
  %70 = load i32, i32* %7, align 4
  %71 = icmp slt i32 %69, %70
  br i1 %71, label %72, label %90

72:                                               ; preds = %68
  %73 = getelementptr inbounds [7 x i8], [7 x i8]* %13, i64 0, i64 0
  %74 = load i32, i32* %4, align 4
  %75 = sext i32 %74 to i64
  %76 = getelementptr inbounds [400 x [7 x i8]], [400 x [7 x i8]]* %12, i64 0, i64 %75
  %77 = getelementptr inbounds [7 x i8], [7 x i8]* %76, i64 0, i64 0
  %78 = call i32 @strcmp(i8* %73, i8* %77) #4
  %79 = icmp ne i32 %78, 0
  br i1 %79, label %86, label %80

80:                                               ; preds = %72
  %81 = load i32, i32* %4, align 4
  %82 = sext i32 %81 to i64
  %83 = getelementptr inbounds [400 x i32], [400 x i32]* %6, i64 0, i64 %82
  %84 = load i32, i32* %83, align 4
  %85 = add nsw i32 %84, 1
  store i32 %85, i32* %83, align 4
  store i32 1, i32* %8, align 4
  br label %90

86:                                               ; preds = %72
  br label %87

87:                                               ; preds = %86
  %88 = load i32, i32* %4, align 4
  %89 = add nsw i32 %88, 1
  store i32 %89, i32* %4, align 4
  br label %68

90:                                               ; preds = %80, %68
  %91 = load i32, i32* %8, align 4
  %92 = icmp eq i32 %91, 0
  br i1 %92, label %93, label %120

93:                                               ; preds = %90
  store i32 0, i32* %4, align 4
  br label %94

94:                                               ; preds = %114, %93
  %95 = load i32, i32* %4, align 4
  %96 = load i32, i32* %2, align 4
  %97 = icmp slt i32 %95, %96
  br i1 %97, label %98, label %117

98:                                               ; preds = %94
  %99 = load i32, i32* %3, align 4
  %100 = load i32, i32* %4, align 4
  %101 = add nsw i32 %99, %100
  %102 = sext i32 %101 to i64
  %103 = getelementptr inbounds [550 x i8], [550 x i8]* %11, i64 0, i64 %102
  %104 = load i8, i8* %103, align 1
  %105 = load i32, i32* %7, align 4
  %106 = sext i32 %105 to i64
  %107 = getelementptr inbounds [400 x [7 x i8]], [400 x [7 x i8]]* %12, i64 0, i64 %106
  %108 = load i32, i32* %4, align 4
  %109 = sext i32 %108 to i64
  %110 = getelementptr inbounds [7 x i8], [7 x i8]* %107, i64 0, i64 %109
  store i8 %104, i8* %110, align 1
  %111 = load i32, i32* %7, align 4
  %112 = sext i32 %111 to i64
  %113 = getelementptr inbounds [400 x i32], [400 x i32]* %6, i64 0, i64 %112
  store i32 1, i32* %113, align 4
  br label %114

114:                                              ; preds = %98
  %115 = load i32, i32* %4, align 4
  %116 = add nsw i32 %115, 1
  store i32 %116, i32* %4, align 4
  br label %94

117:                                              ; preds = %94
  %118 = load i32, i32* %7, align 4
  %119 = add nsw i32 %118, 1
  store i32 %119, i32* %7, align 4
  br label %120

120:                                              ; preds = %117, %90
  br label %121

121:                                              ; preds = %120
  %122 = load i32, i32* %3, align 4
  %123 = add nsw i32 %122, 1
  store i32 %123, i32* %3, align 4
  br label %42

124:                                              ; preds = %42
  store i32 0, i32* %3, align 4
  br label %125

125:                                              ; preds = %161, %124
  %126 = load i32, i32* %3, align 4
  %127 = load i32, i32* %7, align 4
  %128 = icmp slt i32 %126, %127
  br i1 %128, label %129, label %164

129:                                              ; preds = %125
  %130 = load i32, i32* %3, align 4
  %131 = sext i32 %130 to i64
  %132 = getelementptr inbounds [400 x i32], [400 x i32]* %6, i64 0, i64 %131
  %133 = load i32, i32* %132, align 4
  %134 = load i32, i32* %10, align 4
  %135 = icmp sgt i32 %133, %134
  br i1 %135, label %136, label %145

136:                                              ; preds = %129
  %137 = load i32, i32* %3, align 4
  %138 = sext i32 %137 to i64
  %139 = getelementptr inbounds [400 x i32], [400 x i32]* %6, i64 0, i64 %138
  %140 = load i32, i32* %139, align 4
  store i32 %140, i32* %10, align 4
  %141 = getelementptr inbounds [200 x i32], [200 x i32]* %9, i64 0, i64 0
  %142 = bitcast i32* %141 to i8*
  call void @llvm.memset.p0i8.i64(i8* align 16 %142, i8 0, i64 800, i1 false)
  %143 = load i32, i32* %3, align 4
  %144 = getelementptr inbounds [200 x i32], [200 x i32]* %9, i64 0, i64 0
  store i32 %143, i32* %144, align 16
  store i32 1, i32* %4, align 4
  br label %160

145:                                              ; preds = %129
  %146 = load i32, i32* %3, align 4
  %147 = sext i32 %146 to i64
  %148 = getelementptr inbounds [400 x i32], [400 x i32]* %6, i64 0, i64 %147
  %149 = load i32, i32* %148, align 4
  %150 = load i32, i32* %10, align 4
  %151 = icmp eq i32 %149, %150
  br i1 %151, label %152, label %159

152:                                              ; preds = %145
  %153 = load i32, i32* %3, align 4
  %154 = load i32, i32* %4, align 4
  %155 = sext i32 %154 to i64
  %156 = getelementptr inbounds [200 x i32], [200 x i32]* %9, i64 0, i64 %155
  store i32 %153, i32* %156, align 4
  %157 = load i32, i32* %4, align 4
  %158 = add nsw i32 %157, 1
  store i32 %158, i32* %4, align 4
  br label %159

159:                                              ; preds = %152, %145
  br label %160

160:                                              ; preds = %159, %136
  br label %161

161:                                              ; preds = %160
  %162 = load i32, i32* %3, align 4
  %163 = add nsw i32 %162, 1
  store i32 %163, i32* %3, align 4
  br label %125

164:                                              ; preds = %125
  %165 = load i32, i32* %10, align 4
  %166 = icmp eq i32 %165, 1
  br i1 %166, label %167, label %169

167:                                              ; preds = %164
  %168 = call i32 (i8*, ...) @printf(i8* getelementptr inbounds ([4 x i8], [4 x i8]* @.str.2, i64 0, i64 0))
  store i32 0, i32* %1, align 4
  br label %188

169:                                              ; preds = %164
  %170 = load i32, i32* %10, align 4
  %171 = call i32 (i8*, ...) @printf(i8* getelementptr inbounds ([4 x i8], [4 x i8]* @.str.3, i64 0, i64 0), i32 %170)
  store i32 0, i32* %3, align 4
  br label %172

172:                                              ; preds = %185, %169
  %173 = load i32, i32* %3, align 4
  %174 = load i32, i32* %4, align 4
  %175 = icmp slt i32 %173, %174
  br i1 %175, label %176, label %188

176:                                              ; preds = %172
  %177 = load i32, i32* %3, align 4
  %178 = sext i32 %177 to i64
  %179 = getelementptr inbounds [200 x i32], [200 x i32]* %9, i64 0, i64 %178
  %180 = load i32, i32* %179, align 4
  %181 = sext i32 %180 to i64
  %182 = getelementptr inbounds [400 x [7 x i8]], [400 x [7 x i8]]* %12, i64 0, i64 %181
  %183 = getelementptr inbounds [7 x i8], [7 x i8]* %182, i64 0, i64 0
  %184 = call i32 (i8*, ...) @printf(i8* getelementptr inbounds ([4 x i8], [4 x i8]* @.str.4, i64 0, i64 0), i8* %183)
  br label %185

185:                                              ; preds = %176
  %186 = load i32, i32* %3, align 4
  %187 = add nsw i32 %186, 1
  store i32 %187, i32* %3, align 4
  br label %172

188:                                              ; preds = %167, %172
  %189 = load i32, i32* %1, align 4
  ret i32 %189
}

; Function Attrs: argmemonly nounwind willreturn
declare void @llvm.memset.p0i8.i64(i8* nocapture writeonly, i8, i64, i1 immarg) #1

declare dso_local i32 @__isoc99_scanf(i8*, ...) #2

; Function Attrs: nounwind readonly
declare dso_local i64 @strlen(i8*) #3

; Function Attrs: nounwind readonly
declare dso_local i32 @strcmp(i8*, i8*) #3

declare dso_local i32 @printf(i8*, ...) #2


!llvm.module.flags = !{!0}
!llvm.ident = !{!1}

!0 = !{i32 1, !"wchar_size", i32 4}
!1 = !{!"clang version 10.0.0-4ubuntu1 "}
